; Function Attrs: mustprogress nounwind uwtable
define dso_local void @_ZN4base15LinearHistogramD0Ev(ptr noundef nonnull align 8 dereferenceable(136) %this) unnamed_addr #11 align 2 personality ptr @__gxx_personality_v0 {
entry:
  store ptr getelementptr inbounds ({ [25 x ptr] }, ptr @_ZTVN4base15LinearHistogramE, i64 0, i32 0, i64 2), ptr %this, align 8
  %bucket_description_.i = getelementptr inbounds i8, ptr %this, i64 88
  %_M_parent.i.i.i.i.i = getelementptr inbounds i8, ptr %this, i64 104
  %0 = load ptr, ptr %_M_parent.i.i.i.i.i, align 8
  invoke void @_ZNSt8_Rb_treeIiSt4pairIKiNSt7__cxx1112basic_stringIcSt11char_traitsIcESaIcEEEESt10_Select1stIS8_ESt4lessIiESaIS8_EE8_M_eraseEPSt13_Rb_tree_nodeIS8_E(ptr noundef nonnull align 8 dereferenceable(48) %bucket_description_.i, ptr noundef %0)
          to label %_ZNSt3mapIiNSt7__cxx1112basic_stringIcSt11char_traitsIcESaIcEEESt4lessIiESaISt4pairIKiS5_EEED2Ev.exit.i unwind label %terminate.lpad.i.i.i

terminate.lpad.i.i.i:                             ; preds = %entry
  %1 = landingpad { ptr, i32 }
          catch ptr null
  %2 = extractvalue { ptr, i32 } %1, 0
  tail call void @__clang_call_terminate(ptr %2) #23
  unreachable

_ZNSt3mapIiNSt7__cxx1112basic_stringIcSt11char_traitsIcESaIcEEESt4lessIiESaISt4pairIKiS5_EEED2Ev.exit.i: ; preds = %entry
  store ptr getelementptr inbounds ({ [25 x ptr] }, ptr @_ZTVN4base9HistogramE, i64 0, i32 0, i64 2), ptr %this, align 8
  %logged_samples_.i.i = getelementptr inbounds i8, ptr %this, i64 72
  %3 = load ptr, ptr %logged_samples_.i.i, align 8
  %cmp.not.i.i.i = icmp eq ptr %3, null
  br i1 %cmp.not.i.i.i, label %_ZNSt10unique_ptrIN4base16HistogramSamplesESt14default_deleteIS1_EED2Ev.exit.i.i, label %_ZNKSt14default_deleteIN4base16HistogramSamplesEEclEPS1_.exit.i.i.i

_ZNKSt14default_deleteIN4base16HistogramSamplesEEclEPS1_.exit.i.i.i: ; preds = %_ZNSt3mapIiNSt7__cxx1112basic_stringIcSt11char_traitsIcESaIcEEESt4lessIiESaISt4pairIKiS5_EEED2Ev.exit.i
  %vtable.i.i.i.i = load ptr, ptr %3, align 8
  %vfn.i.i.i.i = getelementptr inbounds i8, ptr %vtable.i.i.i.i, i64 8
  %4 = load ptr, ptr %vfn.i.i.i.i, align 8
  tail call void %4(ptr noundef nonnull align 8 dereferenceable(40) %3) #19
  br label %_ZNSt10unique_ptrIN4base16HistogramSamplesESt14default_deleteIS1_EED2Ev.exit.i.i

_ZNSt10unique_ptrIN4base16HistogramSamplesESt14default_deleteIS1_EED2Ev.exit.i.i: ; preds = %_ZNKSt14default_deleteIN4base16HistogramSamplesEEclEPS1_.exit.i.i.i, %_ZNSt3mapIiNSt7__cxx1112basic_stringIcSt11char_traitsIcESaIcEEESt4lessIiESaISt4pairIKiS5_EEED2Ev.exit.i
  store ptr null, ptr %logged_samples_.i.i, align 8
  %samples_.i.i = getelementptr inbounds i8, ptr %this, i64 64
  %5 = load ptr, ptr %samples_.i.i, align 8
  %cmp.not.i1.i.i = icmp eq ptr %5, null
  br i1 %cmp.not.i1.i.i, label %_ZN4base15LinearHistogramD2Ev.exit, label %_ZNKSt14default_deleteIN4base12SampleVectorEEclEPS1_.exit.i.i.i

_ZNKSt14default_deleteIN4base12SampleVectorEEclEPS1_.exit.i.i.i: ; preds = %_ZNSt10unique_ptrIN4base16HistogramSamplesESt14default_deleteIS1_EED2Ev.exit.i.i
  %vtable.i.i2.i.i = load ptr, ptr %5, align 8
  %vfn.i.i3.i.i = getelementptr inbounds i8, ptr %vtable.i.i2.i.i, i64 8
  %6 = load ptr, ptr %vfn.i.i3.i.i, align 8
  tail call void %6(ptr noundef nonnull align 8 dereferenceable(88) %5) #19
  br label %_ZN4base15LinearHistogramD2Ev.exit

_ZN4base15LinearHistogramD2Ev.exit:               ; preds = %_ZNSt10unique_ptrIN4base16HistogramSamplesESt14default_deleteIS1_EED2Ev.exit.i.i, %_ZNKSt14default_deleteIN4base12SampleVectorEEclEPS1_.exit.i.i.i
  store ptr null, ptr %samples_.i.i, align 8
  tail call void @_ZN4base13HistogramBaseD2Ev(ptr noundef nonnull align 8 dereferenceable(44) %this) #19
  tail call void @_ZdlPv(ptr noundef nonnull %this) #22
  ret void
}